target datalayout = "e-m:e-p270:32:32-p271:32:32-p272:64:64-i64:64-i128:128-f80:128-n8:16:32:64-S128"
target triple = "x86_64-unknown-linux-gnu"

%"class.nla::nex" = type { ptr }
%class.ptr_vector = type { %class.vector }
%class.vector = type { ptr }
%"class.nla::nex_sum" = type { %"class.nla::nex", %class.ptr_vector }

; Function Attrs: mustprogress nounwind uwtable
define linkonce_odr hidden noundef nonnull align 8 dereferenceable(8) ptr @_ZNK6vectorIPN3nla3nexELb0EjEixEj(ptr noundef nonnull align 8 dereferenceable(8) %this, i32 noundef %idx) #5 comdat align 2 {
entry:
  %this.addr = alloca ptr, align 8
  %idx.addr = alloca i32, align 4
  store ptr %this, ptr %this.addr, align 8
  store i32 %idx, ptr %idx.addr, align 4
  %this1 = load ptr, ptr %this.addr, align 8
  %m_data = getelementptr inbounds %class.vector, ptr %this1, i32 0, i32 0
  %0 = load ptr, ptr %m_data, align 8
  %1 = load i32, ptr %idx.addr, align 4
  %idxprom = zext i32 %1 to i64
  %arrayidx = getelementptr inbounds ptr, ptr %0, i64 %idxprom
  ret ptr %arrayidx
}

; Function Attrs: mustprogress uwtable
define linkonce_odr hidden noundef zeroext i1 @_ZNK3nla11nex_creator2gtEPKNS_3nexES3_(ptr noundef nonnull align 8 dereferenceable(176) %this, ptr noundef %a, ptr noundef %b) #4 comdat align 2 {
entry:
  %this.addr = alloca ptr, align 8
  %a.addr = alloca ptr, align 8
  %b.addr = alloca ptr, align 8
  store ptr %this, ptr %this.addr, align 8
  store ptr %a, ptr %a.addr, align 8
  store ptr %b, ptr %b.addr, align 8
  %this1 = load ptr, ptr %this.addr, align 8
  %0 = load ptr, ptr %a.addr, align 8
  %1 = load ptr, ptr %b.addr, align 8
  %call = call noundef zeroext i1 @_ZNK3nla11nex_creator2gtERKNS_3nexES3_(ptr noundef nonnull align 8 dereferenceable(176) %this1, ptr noundef nonnull align 8 dereferenceable(8) %0, ptr noundef nonnull align 8 dereferenceable(8) %1)
  ret i1 %call
}

; Function Attrs: mustprogress uwtable
define linkonce_odr hidden noundef ptr @_ZNK3nla7nex_sumixEj(ptr noundef nonnull align 8 dereferenceable(16) %this, i32 noundef %j) #4 comdat align 2 {
entry:
  %this.addr = alloca ptr, align 8
  %j.addr = alloca i32, align 4
  store ptr %this, ptr %this.addr, align 8
  store i32 %j, ptr %j.addr, align 4
  %this1 = load ptr, ptr %this.addr, align 8
  %m_children = getelementptr inbounds %"class.nla::nex_sum", ptr %this1, i32 0, i32 1
  %0 = load i32, ptr %j.addr, align 4
  %call = call noundef nonnull align 8 dereferenceable(8) ptr @_ZNK6vectorIPN3nla3nexELb0EjEixEj(ptr noundef nonnull align 8 dereferenceable(8) %m_children, i32 noundef %0)
  %1 = load ptr, ptr %call, align 8
  ret ptr %1
}

; Function Attrs: mustprogress nounwind uwtable
define linkonce_odr noundef nonnull align 4 dereferenceable(4) ptr @_ZSt3minIjERKT_S2_S2_(ptr noundef nonnull align 4 dereferenceable(4) %__a, ptr noundef nonnull align 4 dereferenceable(4) %__b) #5 comdat {
entry:
  %retval = alloca ptr, align 8
  %__a.addr = alloca ptr, align 8
  %__b.addr = alloca ptr, align 8
  store ptr %__a, ptr %__a.addr, align 8
  store ptr %__b, ptr %__b.addr, align 8
  %0 = load ptr, ptr %__b.addr, align 8
  %1 = load i32, ptr %0, align 4
  %2 = load ptr, ptr %__a.addr, align 8
  %3 = load i32, ptr %2, align 4
  %cmp = icmp ult i32 %1, %3
  br i1 %cmp, label %if.then, label %if.end

if.then:                                          ; preds = %entry
  %4 = load ptr, ptr %__b.addr, align 8
  store ptr %4, ptr %retval, align 8
  br label %return

if.end:                                           ; preds = %entry
  %5 = load ptr, ptr %__a.addr, align 8
  store ptr %5, ptr %retval, align 8
  br label %return

return:                                           ; preds = %if.end, %if.then
  %6 = load ptr, ptr %retval, align 8
  ret ptr %6
}

; Function Attrs: mustprogress uwtable
define hidden noundef zeroext i1 @_ZNK3nla11nex_creator13gt_on_sum_sumERKNS_7nex_sumES3_(ptr noundef nonnull align 8 dereferenceable(176) %this, ptr noundef nonnull align 8 dereferenceable(16) %a, ptr noundef nonnull align 8 dereferenceable(16) %b) #4 align 2 {
entry:
  %retval = alloca i1, align 1
  %this.addr = alloca ptr, align 8
  %a.addr = alloca ptr, align 8
  %b.addr = alloca ptr, align 8
  %size = alloca i32, align 4
  %ref.tmp = alloca i32, align 4
  %ref.tmp2 = alloca i32, align 4
  %j = alloca i32, align 4
  store ptr %this, ptr %this.addr, align 8
  store ptr %a, ptr %a.addr, align 8
  store ptr %b, ptr %b.addr, align 8
  %this1 = load ptr, ptr %this.addr, align 8
  %0 = load ptr, ptr %a.addr, align 8
  %vtable = load ptr, ptr %0, align 8
  %vfn = getelementptr inbounds ptr, ptr %vtable, i64 0
  %1 = load ptr, ptr %vfn, align 8
  %call = call noundef i32 %1(ptr noundef nonnull align 8 dereferenceable(16) %0)
  store i32 %call, ptr %ref.tmp, align 4
  %2 = load ptr, ptr %b.addr, align 8
  %vtable3 = load ptr, ptr %2, align 8
  %vfn4 = getelementptr inbounds ptr, ptr %vtable3, i64 0
  %3 = load ptr, ptr %vfn4, align 8
  %call5 = call noundef i32 %3(ptr noundef nonnull align 8 dereferenceable(16) %2)
  store i32 %call5, ptr %ref.tmp2, align 4
  %call6 = call noundef nonnull align 4 dereferenceable(4) ptr @_ZSt3minIjERKT_S2_S2_(ptr noundef nonnull align 4 dereferenceable(4) %ref.tmp, ptr noundef nonnull align 4 dereferenceable(4) %ref.tmp2)
  %4 = load i32, ptr %call6, align 4
  store i32 %4, ptr %size, align 4
  store i32 0, ptr %j, align 4
  br label %for.cond

for.cond:                                         ; preds = %for.inc, %entry
  %5 = load i32, ptr %j, align 4
  %6 = load i32, ptr %size, align 4
  %cmp = icmp ult i32 %5, %6
  br i1 %cmp, label %for.body, label %for.end

for.body:                                         ; preds = %for.cond
  %7 = load ptr, ptr %a.addr, align 8
  %8 = load i32, ptr %j, align 4
  %call7 = call noundef ptr @_ZNK3nla7nex_sumixEj(ptr noundef nonnull align 8 dereferenceable(16) %7, i32 noundef %8)
  %9 = load ptr, ptr %b.addr, align 8
  %10 = load i32, ptr %j, align 4
  %call8 = call noundef ptr @_ZNK3nla7nex_sumixEj(ptr noundef nonnull align 8 dereferenceable(16) %9, i32 noundef %10)
  %call9 = call noundef zeroext i1 @_ZNK3nla11nex_creator2gtEPKNS_3nexES3_(ptr noundef nonnull align 8 dereferenceable(176) %this1, ptr noundef %call7, ptr noundef %call8)
  br i1 %call9, label %if.then, label %if.end

if.then:                                          ; preds = %for.body
  store i1 true, ptr %retval, align 1
  br label %return

if.end:                                           ; preds = %for.body
  %11 = load ptr, ptr %b.addr, align 8
  %12 = load i32, ptr %j, align 4
  %call10 = call noundef ptr @_ZNK3nla7nex_sumixEj(ptr noundef nonnull align 8 dereferenceable(16) %11, i32 noundef %12)
  %13 = load ptr, ptr %a.addr, align 8
  %14 = load i32, ptr %j, align 4
  %call11 = call noundef ptr @_ZNK3nla7nex_sumixEj(ptr noundef nonnull align 8 dereferenceable(16) %13, i32 noundef %14)
  %call12 = call noundef zeroext i1 @_ZNK3nla11nex_creator2gtEPKNS_3nexES3_(ptr noundef nonnull align 8 dereferenceable(176) %this1, ptr noundef %call10, ptr noundef %call11)
  br i1 %call12, label %if.then13, label %if.end14

if.then13:                                        ; preds = %if.end
  store i1 false, ptr %retval, align 1
  br label %return

if.end14:                                         ; preds = %if.end
  br label %for.inc

for.inc:                                          ; preds = %if.end14
  %15 = load i32, ptr %j, align 4
  %inc = add i32 %15, 1
  store i32 %inc, ptr %j, align 4
  br label %for.cond, !llvm.loop !7

for.end:                                          ; preds = %for.cond
  %16 = load ptr, ptr %a.addr, align 8
  %vtable15 = load ptr, ptr %16, align 8
  %vfn16 = getelementptr inbounds ptr, ptr %vtable15, i64 0
  %17 = load ptr, ptr %vfn16, align 8
  %call17 = call noundef i32 %17(ptr noundef nonnull align 8 dereferenceable(16) %16)
  %18 = load i32, ptr %size, align 4
  %cmp18 = icmp ugt i32 %call17, %18
  store i1 %cmp18, ptr %retval, align 1
  br label %return

return:                                           ; preds = %for.end, %if.then13, %if.then
  %19 = load i1, ptr %retval, align 1
  ret i1 %19
}