; Function Attrs: mustprogress uwtable
define hidden noundef zeroext i1 @_ZNK3nla11nex_creator13gt_on_sum_sumERKNS_7nex_sumES3_(ptr noundef nonnull align 8 dereferenceable(176) %this, ptr noundef nonnull align 8 dereferenceable(16) %a, ptr noundef nonnull align 8 dereferenceable(16) %b) local_unnamed_addr #3 align 2 {
entry:
  %vtable = load ptr, ptr %a, align 8
  %0 = load ptr, ptr %vtable, align 8
  %call = tail call noundef i32 %0(ptr noundef nonnull align 8 dereferenceable(16) %a)
  %vtable3 = load ptr, ptr %b, align 8
  %1 = load ptr, ptr %vtable3, align 8
  %call5 = tail call noundef i32 %1(ptr noundef nonnull align 8 dereferenceable(16) %b)
  %.sroa.speculated = tail call i32 @llvm.umin.i32(i32 %call5, i32 %call)
  %cmp24.not = icmp eq i32 %.sroa.speculated, 0
  br i1 %cmp24.not, label %for.end, label %for.body.lr.ph

for.body.lr.ph:                                   ; preds = %entry
  %m_children.i = getelementptr inbounds i8, ptr %a, i64 8
  %m_children.i12 = getelementptr inbounds i8, ptr %b, i64 8
  %wide.trip.count = zext i32 %.sroa.speculated to i64
  br label %for.body

for.cond:                                         ; preds = %if.end
  %indvars.iv.next = add nuw nsw i64 %indvars.iv, 1
  %exitcond.not = icmp eq i64 %indvars.iv.next, %wide.trip.count
  br i1 %exitcond.not, label %for.end, label %for.body, !llvm.loop !21

for.body:                                         ; preds = %for.body.lr.ph, %for.cond
  %indvars.iv = phi i64 [ 0, %for.body.lr.ph ], [ %indvars.iv.next, %for.cond ]
  %2 = load ptr, ptr %m_children.i, align 8
  %arrayidx.i.i = getelementptr inbounds ptr, ptr %2, i64 %indvars.iv
  %3 = load ptr, ptr %arrayidx.i.i, align 8
  %4 = load ptr, ptr %m_children.i12, align 8
  %arrayidx.i.i14 = getelementptr inbounds ptr, ptr %4, i64 %indvars.iv
  %5 = load ptr, ptr %arrayidx.i.i14, align 8
  %call.i = tail call noundef zeroext i1 @_ZNK3nla11nex_creator2gtERKNS_3nexES3_(ptr noundef nonnull align 8 dereferenceable(176) %this, ptr noundef nonnull align 8 dereferenceable(8) %3, ptr noundef nonnull align 8 dereferenceable(8) %5)
  br i1 %call.i, label %return, label %if.end

if.end:                                           ; preds = %for.body
  %6 = load ptr, ptr %m_children.i12, align 8
  %arrayidx.i.i17 = getelementptr inbounds ptr, ptr %6, i64 %indvars.iv
  %7 = load ptr, ptr %arrayidx.i.i17, align 8
  %8 = load ptr, ptr %m_children.i, align 8
  %arrayidx.i.i20 = getelementptr inbounds ptr, ptr %8, i64 %indvars.iv
  %9 = load ptr, ptr %arrayidx.i.i20, align 8
  %call.i21 = tail call noundef zeroext i1 @_ZNK3nla11nex_creator2gtERKNS_3nexES3_(ptr noundef nonnull align 8 dereferenceable(176) %this, ptr noundef nonnull align 8 dereferenceable(8) %7, ptr noundef nonnull align 8 dereferenceable(8) %9)
  br i1 %call.i21, label %return, label %for.cond

for.end:                                          ; preds = %for.cond, %entry
  %vtable15 = load ptr, ptr %a, align 8
  %10 = load ptr, ptr %vtable15, align 8
  %call17 = tail call noundef i32 %10(ptr noundef nonnull align 8 dereferenceable(16) %a)
  %cmp18 = icmp ugt i32 %call17, %.sroa.speculated
  br label %return

return:                                           ; preds = %if.end, %for.body, %for.end
  %retval.0 = phi i1 [ %cmp18, %for.end ], [ %call.i, %for.body ], [ %call.i, %if.end ]
  ret i1 %retval.0
}